; Function Attrs: mustprogress nounwind uwtable
define hidden void @_ZN10HandleArea7oops_doEP10OopClosure(ptr nocapture noundef nonnull readonly align 8 dereferenceable(56) %0, ptr noundef %1) local_unnamed_addr #0 align 2 {
  br label %tailrecurse

tailrecurse:                                      ; preds = %._crit_edge, %2
  %.tr = phi ptr [ %0, %2 ], [ %26, %._crit_edge ]
  %3 = getelementptr inbounds i8, ptr %.tr, i64 24
  %4 = load ptr, ptr %3, align 8
  %5 = getelementptr inbounds i8, ptr %.tr, i64 32
  %6 = load ptr, ptr %5, align 8
  %7 = getelementptr inbounds i8, ptr %4, i64 16
  %8 = icmp ult ptr %7, %6
  br i1 %8, label %.lr.ph.i, label %_ZL13chunk_oops_doP10OopClosureP5ChunkPc.exit

.lr.ph.i:                                         ; preds = %tailrecurse, %.lr.ph.i
  %.08.i = phi ptr [ %9, %.lr.ph.i ], [ %7, %tailrecurse ]
  %9 = getelementptr inbounds i8, ptr %.08.i, i64 8
  %10 = load ptr, ptr %1, align 8
  %11 = load ptr, ptr %10, align 8
  tail call void %11(ptr noundef nonnull align 8 dereferenceable(8) %1, ptr noundef nonnull %.08.i) #6
  %12 = icmp ult ptr %9, %6
  br i1 %12, label %.lr.ph.i, label %_ZL13chunk_oops_doP10OopClosureP5ChunkPc.exit.loopexit, !llvm.loop !9

_ZL13chunk_oops_doP10OopClosureP5ChunkPc.exit.loopexit: ; preds = %.lr.ph.i
  %.pre = load ptr, ptr %3, align 8
  br label %_ZL13chunk_oops_doP10OopClosureP5ChunkPc.exit

_ZL13chunk_oops_doP10OopClosureP5ChunkPc.exit:    ; preds = %_ZL13chunk_oops_doP10OopClosureP5ChunkPc.exit.loopexit, %tailrecurse
  %13 = phi ptr [ %.pre, %_ZL13chunk_oops_doP10OopClosureP5ChunkPc.exit.loopexit ], [ %4, %tailrecurse ]
  %14 = getelementptr inbounds i8, ptr %.tr, i64 16
  %.017 = load ptr, ptr %14, align 8
  %.not18 = icmp eq ptr %.017, %13
  br i1 %.not18, label %._crit_edge, label %.lr.ph

.lr.ph:                                           ; preds = %_ZL13chunk_oops_doP10OopClosureP5ChunkPc.exit, %_ZL13chunk_oops_doP10OopClosureP5ChunkPc.exit14
  %15 = phi ptr [ %24, %_ZL13chunk_oops_doP10OopClosureP5ChunkPc.exit14 ], [ %13, %_ZL13chunk_oops_doP10OopClosureP5ChunkPc.exit ]
  %.019 = phi ptr [ %.0, %_ZL13chunk_oops_doP10OopClosureP5ChunkPc.exit14 ], [ %.017, %_ZL13chunk_oops_doP10OopClosureP5ChunkPc.exit ]
  %16 = getelementptr inbounds i8, ptr %.019, i64 8
  %17 = load i64, ptr %16, align 8
  %18 = getelementptr i8, ptr %.019, i64 %17
  %.ptr15 = getelementptr i8, ptr %18, i64 16
  %19 = icmp sgt i64 %17, 0
  br i1 %19, label %.lr.ph.i12.preheader, label %_ZL13chunk_oops_doP10OopClosureP5ChunkPc.exit14

.lr.ph.i12.preheader:                             ; preds = %.lr.ph
  %.ptr = getelementptr inbounds i8, ptr %.019, i64 16
  br label %.lr.ph.i12

.lr.ph.i12:                                       ; preds = %.lr.ph.i12.preheader, %.lr.ph.i12
  %.08.i13 = phi ptr [ %20, %.lr.ph.i12 ], [ %.ptr, %.lr.ph.i12.preheader ]
  %20 = getelementptr inbounds i8, ptr %.08.i13, i64 8
  %21 = load ptr, ptr %1, align 8
  %22 = load ptr, ptr %21, align 8
  tail call void %22(ptr noundef nonnull align 8 dereferenceable(8) %1, ptr noundef nonnull %.08.i13) #6
  %23 = icmp ult ptr %20, %.ptr15
  br i1 %23, label %.lr.ph.i12, label %_ZL13chunk_oops_doP10OopClosureP5ChunkPc.exit14.loopexit, !llvm.loop !9

_ZL13chunk_oops_doP10OopClosureP5ChunkPc.exit14.loopexit: ; preds = %.lr.ph.i12
  %.pre20 = load ptr, ptr %3, align 8
  br label %_ZL13chunk_oops_doP10OopClosureP5ChunkPc.exit14

_ZL13chunk_oops_doP10OopClosureP5ChunkPc.exit14:  ; preds = %_ZL13chunk_oops_doP10OopClosureP5ChunkPc.exit14.loopexit, %.lr.ph
  %24 = phi ptr [ %.pre20, %_ZL13chunk_oops_doP10OopClosureP5ChunkPc.exit14.loopexit ], [ %15, %.lr.ph ]
  %.0 = load ptr, ptr %.019, align 8
  %.not = icmp eq ptr %.0, %24
  br i1 %.not, label %._crit_edge, label %.lr.ph, !llvm.loop !10

._crit_edge:                                      ; preds = %_ZL13chunk_oops_doP10OopClosureP5ChunkPc.exit14, %_ZL13chunk_oops_doP10OopClosureP5ChunkPc.exit
  %25 = getelementptr inbounds i8, ptr %.tr, i64 48
  %26 = load ptr, ptr %25, align 8
  %.not11 = icmp eq ptr %26, null
  br i1 %.not11, label %27, label %tailrecurse

27:                                               ; preds = %._crit_edge
  ret void
}